target datalayout = "e-m:e-p270:32:32-p271:32:32-p272:64:64-i64:64-i128:128-f80:128-n8:16:32:64-S128"
target triple = "x86_64-pc-linux-gnu"

%struct.GetByteContext = type { ptr, ptr, ptr }
%struct.AVCodecContext = type { ptr, i32, i32, ptr, i32, i32, ptr, ptr, ptr, i64, i32, i32, ptr, i32, %struct.AVRational, %struct.AVRational, %struct.AVRational, i32, i32, i32, i32, i32, %struct.AVRational, i32, i32, i32, i32, i32, i32, i32, i32, i32, i32, i32, ptr, ptr, i32, float, float, float, float, float, float, float, float, float, i32, i32, i32, i32, i32, i32, i32, i32, i32, i32, i32, i32, ptr, ptr, ptr, i32, i32, i32, i32, i32, i32, i32, i32, i32, i32, %struct.AVChannelLayout, i32, i32, i32, i32, i32, i32, i32, i32, ptr, i32, i32, i32, float, float, i32, i32, i32, i32, i32, ptr, i64, i64, float, float, i32, i32, ptr, ptr, i32, i32, i32, i32, i32, ptr, ptr, ptr, ptr, i32, i32, [8 x i64], i32, i32, i32, i32, i32, i32, i32, ptr, ptr, i32, i32, i32, i32, i32, i32, i32, i32, i32, i32, ptr, ptr, i32, i32, ptr, ptr, ptr, ptr, i32, i32, i64, i32, i32, i64, ptr, i64, ptr, i32, ptr, i32 }
%struct.AVRational = type { i32, i32 }
%struct.AVChannelLayout = type { i32, i32, %union.anon, ptr }
%union.anon = type { i64 }

@.str = private unnamed_addr constant [30 x i8] c"Assertion %s failed at %s:%d\0A\00", align 1
@.str.1 = private unnamed_addr constant [14 x i8] c"buf_size >= 0\00", align 1
@.str.2 = private unnamed_addr constant [24 x i8] c"libavcodec/bytestream.h\00", align 1

; Function Attrs: nounwind uwtable
define i32 @ff_canopus_parse_info_tag(ptr noundef %0, ptr noundef %1, i64 noundef %2) #0 {
  %4 = alloca i32, align 4
  %5 = alloca ptr, align 8
  %6 = alloca ptr, align 8
  %7 = alloca i64, align 8
  %8 = alloca %struct.GetByteContext, align 8
  %9 = alloca i32, align 4
  %10 = alloca i32, align 4
  %11 = alloca i32, align 4
  %12 = alloca i32, align 4
  store ptr %0, ptr %5, align 8, !tbaa !4
  store ptr %1, ptr %6, align 8, !tbaa !9
  store i64 %2, ptr %7, align 8, !tbaa !11
  call void @llvm.lifetime.start.p0(i64 24, ptr %8) #5
  call void @llvm.lifetime.start.p0(i64 4, ptr %9) #5
  call void @llvm.lifetime.start.p0(i64 4, ptr %10) #5
  call void @llvm.lifetime.start.p0(i64 4, ptr %11) #5
  %13 = load ptr, ptr %6, align 8, !tbaa !9
  %14 = load i64, ptr %7, align 8, !tbaa !11
  %15 = trunc i64 %14 to i32
  call void @bytestream2_init(ptr noundef %8, ptr noundef %13, i32 noundef %15)
  call void @bytestream2_skip(ptr noundef %8, i32 noundef 8)
  %16 = call i32 @bytestream2_get_le32(ptr noundef %8)
  store i32 %16, ptr %9, align 4, !tbaa !13
  %17 = call i32 @bytestream2_get_le32(ptr noundef %8)
  store i32 %17, ptr %10, align 4, !tbaa !13
  %18 = load i32, ptr %9, align 4, !tbaa !13
  %19 = icmp ne i32 %18, 0
  br i1 %19, label %20, label %35

20:                                               ; preds = %3
  %21 = load i32, ptr %10, align 4, !tbaa !13
  %22 = icmp ne i32 %21, 0
  br i1 %22, label %23, label %35

23:                                               ; preds = %20
  %24 = load ptr, ptr %5, align 8, !tbaa !4
  %25 = getelementptr inbounds nuw %struct.AVCodecContext, ptr %24, i32 0, i32 22
  %26 = getelementptr inbounds nuw %struct.AVRational, ptr %25, i32 0, i32 0
  %27 = load ptr, ptr %5, align 8, !tbaa !4
  %28 = getelementptr inbounds nuw %struct.AVCodecContext, ptr %27, i32 0, i32 22
  %29 = getelementptr inbounds nuw %struct.AVRational, ptr %28, i32 0, i32 1
  %30 = load i32, ptr %9, align 4, !tbaa !13
  %31 = sext i32 %30 to i64
  %32 = load i32, ptr %10, align 4, !tbaa !13
  %33 = sext i32 %32 to i64
  %34 = call i32 @av_reduce(ptr noundef %26, ptr noundef %29, i64 noundef %31, i64 noundef %33, i64 noundef 255)
  br label %35

35:                                               ; preds = %23, %20, %3
  %36 = load i64, ptr %7, align 8, !tbaa !11
  %37 = icmp eq i64 %36, 24
  br i1 %37, label %38, label %39

38:                                               ; preds = %35
  store i32 0, ptr %4, align 4
  store i32 1, ptr %12, align 4
  br label %52

39:                                               ; preds = %35
  call void @bytestream2_skip(ptr noundef %8, i32 noundef 16)
  call void @bytestream2_skip(ptr noundef %8, i32 noundef 8)
  %40 = call i32 @bytestream2_get_le32(ptr noundef %8)
  store i32 %40, ptr %11, align 4, !tbaa !13
  %41 = load i32, ptr %11, align 4, !tbaa !13
  switch i32 %41, label %51 [
    i32 0, label %42
    i32 1, label %45
    i32 2, label %48
  ]

42:                                               ; preds = %39
  %43 = load ptr, ptr %5, align 8, !tbaa !4
  %44 = getelementptr inbounds nuw %struct.AVCodecContext, ptr %43, i32 0, i32 30
  store i32 2, ptr %44, align 4, !tbaa !15
  br label %51

45:                                               ; preds = %39
  %46 = load ptr, ptr %5, align 8, !tbaa !4
  %47 = getelementptr inbounds nuw %struct.AVCodecContext, ptr %46, i32 0, i32 30
  store i32 3, ptr %47, align 4, !tbaa !15
  br label %51

48:                                               ; preds = %39
  %49 = load ptr, ptr %5, align 8, !tbaa !4
  %50 = getelementptr inbounds nuw %struct.AVCodecContext, ptr %49, i32 0, i32 30
  store i32 1, ptr %50, align 4, !tbaa !15
  br label %51

51:                                               ; preds = %39, %48, %45, %42
  store i32 0, ptr %4, align 4
  store i32 1, ptr %12, align 4
  br label %52

52:                                               ; preds = %51, %38
  call void @llvm.lifetime.end.p0(i64 4, ptr %11) #5
  call void @llvm.lifetime.end.p0(i64 4, ptr %10) #5
  call void @llvm.lifetime.end.p0(i64 4, ptr %9) #5
  call void @llvm.lifetime.end.p0(i64 24, ptr %8) #5
  %53 = load i32, ptr %4, align 4
  ret i32 %53
}

; Function Attrs: nocallback nofree nosync nounwind willreturn memory(argmem: readwrite)
declare void @llvm.lifetime.start.p0(i64 immarg, ptr captures(none)) #1

; Function Attrs: alwaysinline nounwind uwtable
define internal void @bytestream2_init(ptr noundef %0, ptr noundef %1, i32 noundef %2) #2 {
  %4 = alloca ptr, align 8
  %5 = alloca ptr, align 8
  %6 = alloca i32, align 4
  store ptr %0, ptr %4, align 8, !tbaa !32
  store ptr %1, ptr %5, align 8, !tbaa !9
  store i32 %2, ptr %6, align 4, !tbaa !13
  br label %7

7:                                                ; preds = %3
  %8 = load i32, ptr %6, align 4, !tbaa !13
  %9 = icmp sge i32 %8, 0
  br i1 %9, label %11, label %10

10:                                               ; preds = %7
  call void (ptr, i32, ptr, ...) @av_log(ptr noundef null, i32 noundef 0, ptr noundef @.str, ptr noundef @.str.1, ptr noundef @.str.2, i32 noundef 141)
  call void @abort() #6
  unreachable

11:                                               ; preds = %7
  br label %12

12:                                               ; preds = %11
  %13 = load ptr, ptr %5, align 8, !tbaa !9
  %14 = load ptr, ptr %4, align 8, !tbaa !32
  %15 = getelementptr inbounds nuw %struct.GetByteContext, ptr %14, i32 0, i32 0
  store ptr %13, ptr %15, align 8, !tbaa !34
  %16 = load ptr, ptr %5, align 8, !tbaa !9
  %17 = load ptr, ptr %4, align 8, !tbaa !32
  %18 = getelementptr inbounds nuw %struct.GetByteContext, ptr %17, i32 0, i32 2
  store ptr %16, ptr %18, align 8, !tbaa !36
  %19 = load ptr, ptr %5, align 8, !tbaa !9
  %20 = load i32, ptr %6, align 4, !tbaa !13
  %21 = sext i32 %20 to i64
  %22 = getelementptr inbounds i8, ptr %19, i64 %21
  %23 = load ptr, ptr %4, align 8, !tbaa !32
  %24 = getelementptr inbounds nuw %struct.GetByteContext, ptr %23, i32 0, i32 1
  store ptr %22, ptr %24, align 8, !tbaa !37
  ret void
}

; Function Attrs: alwaysinline nounwind uwtable
define internal void @bytestream2_skip(ptr noundef %0, i32 noundef %1) #2 {
  %3 = alloca ptr, align 8
  %4 = alloca i32, align 4
  store ptr %0, ptr %3, align 8, !tbaa !32
  store i32 %1, ptr %4, align 4, !tbaa !13
  %5 = load ptr, ptr %3, align 8, !tbaa !32
  %6 = getelementptr inbounds nuw %struct.GetByteContext, ptr %5, i32 0, i32 1
  %7 = load ptr, ptr %6, align 8, !tbaa !37
  %8 = load ptr, ptr %3, align 8, !tbaa !32
  %9 = getelementptr inbounds nuw %struct.GetByteContext, ptr %8, i32 0, i32 0
  %10 = load ptr, ptr %9, align 8, !tbaa !34
  %11 = ptrtoint ptr %7 to i64
  %12 = ptrtoint ptr %10 to i64
  %13 = sub i64 %11, %12
  %14 = load i32, ptr %4, align 4, !tbaa !13
  %15 = zext i32 %14 to i64
  %16 = icmp sgt i64 %13, %15
  br i1 %16, label %17, label %20

17:                                               ; preds = %2
  %18 = load i32, ptr %4, align 4, !tbaa !13
  %19 = zext i32 %18 to i64
  br label %30

20:                                               ; preds = %2
  %21 = load ptr, ptr %3, align 8, !tbaa !32
  %22 = getelementptr inbounds nuw %struct.GetByteContext, ptr %21, i32 0, i32 1
  %23 = load ptr, ptr %22, align 8, !tbaa !37
  %24 = load ptr, ptr %3, align 8, !tbaa !32
  %25 = getelementptr inbounds nuw %struct.GetByteContext, ptr %24, i32 0, i32 0
  %26 = load ptr, ptr %25, align 8, !tbaa !34
  %27 = ptrtoint ptr %23 to i64
  %28 = ptrtoint ptr %26 to i64
  %29 = sub i64 %27, %28
  br label %30

30:                                               ; preds = %20, %17
  %31 = phi i64 [ %19, %17 ], [ %29, %20 ]
  %32 = load ptr, ptr %3, align 8, !tbaa !32
  %33 = getelementptr inbounds nuw %struct.GetByteContext, ptr %32, i32 0, i32 0
  %34 = load ptr, ptr %33, align 8, !tbaa !34
  %35 = getelementptr inbounds i8, ptr %34, i64 %31
  store ptr %35, ptr %33, align 8, !tbaa !34
  ret void
}

; Function Attrs: alwaysinline nounwind uwtable
define internal i32 @bytestream2_get_le32(ptr noundef %0) #2 {
  %2 = alloca i32, align 4
  %3 = alloca ptr, align 8
  store ptr %0, ptr %3, align 8, !tbaa !32
  %4 = load ptr, ptr %3, align 8, !tbaa !32
  %5 = getelementptr inbounds nuw %struct.GetByteContext, ptr %4, i32 0, i32 1
  %6 = load ptr, ptr %5, align 8, !tbaa !37
  %7 = load ptr, ptr %3, align 8, !tbaa !32
  %8 = getelementptr inbounds nuw %struct.GetByteContext, ptr %7, i32 0, i32 0
  %9 = load ptr, ptr %8, align 8, !tbaa !34
  %10 = ptrtoint ptr %6 to i64
  %11 = ptrtoint ptr %9 to i64
  %12 = sub i64 %10, %11
  %13 = icmp slt i64 %12, 4
  br i1 %13, label %14, label %20

14:                                               ; preds = %1
  %15 = load ptr, ptr %3, align 8, !tbaa !32
  %16 = getelementptr inbounds nuw %struct.GetByteContext, ptr %15, i32 0, i32 1
  %17 = load ptr, ptr %16, align 8, !tbaa !37
  %18 = load ptr, ptr %3, align 8, !tbaa !32
  %19 = getelementptr inbounds nuw %struct.GetByteContext, ptr %18, i32 0, i32 0
  store ptr %17, ptr %19, align 8, !tbaa !34
  store i32 0, ptr %2, align 4
  br label %23

20:                                               ; preds = %1
  %21 = load ptr, ptr %3, align 8, !tbaa !32
  %22 = call i32 @bytestream2_get_le32u(ptr noundef %21)
  store i32 %22, ptr %2, align 4
  br label %23

23:                                               ; preds = %20, %14
  %24 = load i32, ptr %2, align 4
  ret i32 %24
}

declare i32 @av_reduce(ptr noundef, ptr noundef, i64 noundef, i64 noundef, i64 noundef) #3

; Function Attrs: nocallback nofree nosync nounwind willreturn memory(argmem: readwrite)
declare void @llvm.lifetime.end.p0(i64 immarg, ptr captures(none)) #1

declare void @av_log(ptr noundef, i32 noundef, ptr noundef, ...) #3

; Function Attrs: noreturn nounwind
declare void @abort() #4

; Function Attrs: alwaysinline nounwind uwtable
define internal i32 @bytestream2_get_le32u(ptr noundef %0) #2 {
  %2 = alloca ptr, align 8
  store ptr %0, ptr %2, align 8, !tbaa !32
  %3 = load ptr, ptr %2, align 8, !tbaa !32
  %4 = getelementptr inbounds nuw %struct.GetByteContext, ptr %3, i32 0, i32 0
  %5 = call i32 @bytestream_get_le32(ptr noundef %4)
  ret i32 %5
}

; Function Attrs: alwaysinline nounwind uwtable
define internal i32 @bytestream_get_le32(ptr noundef %0) #2 {
  %2 = alloca ptr, align 8
  store ptr %0, ptr %2, align 8, !tbaa !38
  %3 = load ptr, ptr %2, align 8, !tbaa !38
  %4 = load ptr, ptr %3, align 8, !tbaa !9
  %5 = getelementptr inbounds i8, ptr %4, i64 4
  store ptr %5, ptr %3, align 8, !tbaa !9
  %6 = load ptr, ptr %2, align 8, !tbaa !38
  %7 = load ptr, ptr %6, align 8, !tbaa !9
  %8 = getelementptr inbounds i8, ptr %7, i64 -4
  %9 = load i32, ptr %8, align 1, !tbaa !40
  ret i32 %9
}


!llvm.module.flags = !{!0, !1, !2, !3}

!0 = !{i32 1, !"wchar_size", i32 4}
!1 = !{i32 8, !"PIC Level", i32 2}
!2 = !{i32 7, !"uwtable", i32 2}
!3 = !{i32 1, !"override-stack-alignment", i32 16}
!4 = !{!5, !5, i64 0}
!5 = !{!"p1 _ZTS14AVCodecContext", !6, i64 0}
!6 = !{!"any pointer", !7, i64 0}
!7 = !{!"omnipotent char", !8, i64 0}
!8 = !{!"Simple C/C++ TBAA"}
!9 = !{!10, !10, i64 0}
!10 = !{!"p1 omnipotent char", !6, i64 0}
!11 = !{!12, !12, i64 0}
!12 = !{!"long", !7, i64 0}
!13 = !{!14, !14, i64 0}
!14 = !{!"int", !7, i64 0}
!15 = !{!16, !14, i64 164}
!16 = !{!"AVCodecContext", !17, i64 0, !14, i64 8, !14, i64 12, !18, i64 16, !14, i64 24, !14, i64 28, !6, i64 32, !19, i64 40, !6, i64 48, !12, i64 56, !14, i64 64, !14, i64 68, !10, i64 72, !14, i64 80, !20, i64 84, !20, i64 92, !20, i64 100, !14, i64 108, !14, i64 112, !14, i64 116, !14, i64 120, !14, i64 124, !20, i64 128, !14, i64 136, !14, i64 140, !14, i64 144, !14, i64 148, !14, i64 152, !14, i64 156, !14, i64 160, !14, i64 164, !14, i64 168, !14, i64 172, !14, i64 176, !6, i64 184, !6, i64 192, !14, i64 200, !21, i64 204, !21, i64 208, !21, i64 212, !21, i64 216, !21, i64 220, !21, i64 224, !21, i64 228, !21, i64 232, !21, i64 236, !14, i64 240, !14, i64 244, !14, i64 248, !14, i64 252, !14, i64 256, !14, i64 260, !14, i64 264, !14, i64 268, !14, i64 272, !14, i64 276, !14, i64 280, !14, i64 284, !22, i64 288, !22, i64 296, !22, i64 304, !14, i64 312, !14, i64 316, !14, i64 320, !14, i64 324, !14, i64 328, !14, i64 332, !14, i64 336, !14, i64 340, !14, i64 344, !14, i64 348, !23, i64 352, !14, i64 376, !14, i64 380, !14, i64 384, !14, i64 388, !14, i64 392, !14, i64 396, !14, i64 400, !14, i64 404, !6, i64 408, !14, i64 416, !14, i64 420, !14, i64 424, !21, i64 428, !21, i64 432, !14, i64 436, !14, i64 440, !14, i64 444, !14, i64 448, !14, i64 452, !24, i64 456, !12, i64 464, !12, i64 472, !21, i64 480, !21, i64 484, !14, i64 488, !14, i64 492, !10, i64 496, !10, i64 504, !14, i64 512, !14, i64 516, !14, i64 520, !14, i64 524, !14, i64 528, !25, i64 536, !6, i64 544, !26, i64 552, !26, i64 560, !14, i64 568, !14, i64 572, !7, i64 576, !14, i64 640, !14, i64 644, !14, i64 648, !14, i64 652, !14, i64 656, !14, i64 660, !14, i64 664, !6, i64 672, !6, i64 680, !14, i64 688, !14, i64 692, !14, i64 696, !14, i64 700, !14, i64 704, !14, i64 708, !14, i64 712, !14, i64 716, !14, i64 720, !14, i64 724, !27, i64 728, !10, i64 736, !14, i64 744, !14, i64 748, !10, i64 752, !10, i64 760, !10, i64 768, !28, i64 776, !14, i64 784, !14, i64 788, !12, i64 792, !14, i64 800, !14, i64 804, !12, i64 808, !6, i64 816, !12, i64 824, !29, i64 832, !14, i64 840, !30, i64 848, !14, i64 856}
!17 = !{!"p1 _ZTS7AVClass", !6, i64 0}
!18 = !{!"p1 _ZTS7AVCodec", !6, i64 0}
!19 = !{!"p1 _ZTS15AVCodecInternal", !6, i64 0}
!20 = !{!"AVRational", !14, i64 0, !14, i64 4}
!21 = !{!"float", !7, i64 0}
!22 = !{!"p1 short", !6, i64 0}
!23 = !{!"AVChannelLayout", !14, i64 0, !14, i64 4, !7, i64 8, !6, i64 16}
!24 = !{!"p1 _ZTS10RcOverride", !6, i64 0}
!25 = !{!"p1 _ZTS9AVHWAccel", !6, i64 0}
!26 = !{!"p1 _ZTS11AVBufferRef", !6, i64 0}
!27 = !{!"p1 _ZTS17AVCodecDescriptor", !6, i64 0}
!28 = !{!"p1 _ZTS16AVPacketSideData", !6, i64 0}
!29 = !{!"p1 int", !6, i64 0}
!30 = !{!"p2 _ZTS15AVFrameSideData", !31, i64 0}
!31 = !{!"any p2 pointer", !6, i64 0}
!32 = !{!33, !33, i64 0}
!33 = !{!"p1 _ZTS14GetByteContext", !6, i64 0}
!34 = !{!35, !10, i64 0}
!35 = !{!"GetByteContext", !10, i64 0, !10, i64 8, !10, i64 16}
!36 = !{!35, !10, i64 16}
!37 = !{!35, !10, i64 8}
!38 = !{!39, !39, i64 0}
!39 = !{!"p2 omnipotent char", !31, i64 0}
!40 = !{!7, !7, i64 0}
